target datalayout = "e-m:e-p270:32:32-p271:32:32-p272:64:64-i64:64-i128:128-f80:128-n8:16:32:64-S128"
target triple = "x86_64-pc-linux-gnu"

%struct.typenode = type { i16, i64, ptr, ptr, ptr, ptr, ptr, ptr, ptr, ptr, ptr }
%struct.typearg = type { ptr, ptr }

; Function Attrs: nounwind uwtable
define dso_local void @_nc_Free_Argument(ptr noundef %0, ptr noundef %1) #0 {
  %3 = alloca ptr, align 8
  %4 = alloca ptr, align 8
  store ptr %0, ptr %3, align 8, !tbaa !4
  store ptr %1, ptr %4, align 8, !tbaa !13
  %5 = load ptr, ptr %3, align 8, !tbaa !4
  %6 = icmp ne ptr %5, null
  br i1 %6, label %7, label %14

7:                                                ; preds = %2
  %8 = load ptr, ptr %3, align 8, !tbaa !4
  %9 = getelementptr inbounds nuw %struct.typenode, ptr %8, i32 0, i32 0
  %10 = load i16, ptr %9, align 8, !tbaa !15
  %11 = zext i16 %10 to i32
  %12 = and i32 %11, 2
  %13 = icmp ne i32 %12, 0
  br i1 %13, label %15, label %14

14:                                               ; preds = %7, %2
  br label %47

15:                                               ; preds = %7
  %16 = load ptr, ptr %3, align 8, !tbaa !4
  %17 = getelementptr inbounds nuw %struct.typenode, ptr %16, i32 0, i32 0
  %18 = load i16, ptr %17, align 8, !tbaa !15
  %19 = zext i16 %18 to i32
  %20 = and i32 %19, 1
  %21 = icmp ne i32 %20, 0
  br i1 %21, label %22, label %36

22:                                               ; preds = %15
  %23 = load ptr, ptr %3, align 8, !tbaa !4
  %24 = getelementptr inbounds nuw %struct.typenode, ptr %23, i32 0, i32 2
  %25 = load ptr, ptr %24, align 8, !tbaa !19
  %26 = load ptr, ptr %4, align 8, !tbaa !13
  %27 = getelementptr inbounds nuw %struct.typearg, ptr %26, i32 0, i32 0
  %28 = load ptr, ptr %27, align 8, !tbaa !20
  call void @_nc_Free_Argument(ptr noundef %25, ptr noundef %28)
  %29 = load ptr, ptr %3, align 8, !tbaa !4
  %30 = getelementptr inbounds nuw %struct.typenode, ptr %29, i32 0, i32 3
  %31 = load ptr, ptr %30, align 8, !tbaa !22
  %32 = load ptr, ptr %4, align 8, !tbaa !13
  %33 = getelementptr inbounds nuw %struct.typearg, ptr %32, i32 0, i32 1
  %34 = load ptr, ptr %33, align 8, !tbaa !23
  call void @_nc_Free_Argument(ptr noundef %31, ptr noundef %34)
  %35 = load ptr, ptr %4, align 8, !tbaa !13
  call void @free(ptr noundef %35) #7
  br label %47

36:                                               ; preds = %15
  %37 = load ptr, ptr %3, align 8, !tbaa !4
  %38 = getelementptr inbounds nuw %struct.typenode, ptr %37, i32 0, i32 6
  %39 = load ptr, ptr %38, align 8, !tbaa !28
  %40 = icmp ne ptr %39, null
  br i1 %40, label %41, label %46

41:                                               ; preds = %36
  %42 = load ptr, ptr %3, align 8, !tbaa !4
  %43 = getelementptr inbounds nuw %struct.typenode, ptr %42, i32 0, i32 6
  %44 = load ptr, ptr %43, align 8, !tbaa !28
  %45 = load ptr, ptr %4, align 8, !tbaa !13
  call void %44(ptr noundef %45)
  br label %46

46:                                               ; preds = %41, %36
  br label %47

47:                                               ; preds = %14, %46, %22
  ret void
}