; Function Attrs: nounwind uwtable
define dso_local void @_nc_Free_Argument(ptr noundef readonly %0, ptr noundef %1) local_unnamed_addr #0 {
  %.not = icmp eq ptr %0, null
  br i1 %.not, label %common.ret15, label %3

3:                                                ; preds = %2
  %4 = load i16, ptr %0, align 8, !tbaa !4
  %5 = zext i16 %4 to i32
  %6 = and i32 %5, 2
  %.not12 = icmp eq i32 %6, 0
  br i1 %.not12, label %common.ret15, label %7

7:                                                ; preds = %3
  %8 = and i32 %5, 1
  %.not13 = icmp eq i32 %8, 0
  br i1 %.not13, label %17, label %9

common.ret15:                                     ; preds = %17, %20, %2, %3, %9
  ret void

9:                                                ; preds = %7
  %10 = getelementptr inbounds nuw i8, ptr %0, i64 16
  %11 = load ptr, ptr %10, align 8, !tbaa !12
  %12 = load ptr, ptr %1, align 8, !tbaa !13
  tail call void @_nc_Free_Argument(ptr noundef %11, ptr noundef %12)
  %13 = getelementptr inbounds nuw i8, ptr %0, i64 24
  %14 = load ptr, ptr %13, align 8, !tbaa !16
  %15 = getelementptr inbounds nuw i8, ptr %1, i64 8
  %16 = load ptr, ptr %15, align 8, !tbaa !17
  tail call void @_nc_Free_Argument(ptr noundef %14, ptr noundef %16)
  tail call void @free(ptr noundef %1) #8
  br label %common.ret15

17:                                               ; preds = %7
  %18 = getelementptr inbounds nuw i8, ptr %0, i64 48
  %19 = load ptr, ptr %18, align 8, !tbaa !22
  %.not14 = icmp eq ptr %19, null
  br i1 %.not14, label %common.ret15, label %20

20:                                               ; preds = %17
  tail call void %19(ptr noundef %1) #8
  br label %common.ret15
}